target datalayout = "e-m:e-p270:32:32-p271:32:32-p272:64:64-i64:64-i128:128-f80:128-n8:16:32:64-S128"
target triple = "x86_64-unknown-linux-gnu"

%class.expr2polynomial = type { ptr, ptr }

@_ZTV15expr2polynomial = hidden unnamed_addr constant { [6 x ptr] } { [6 x ptr] [ptr null, ptr @_ZTI15expr2polynomial, ptr @_ZN15expr2polynomialD1Ev, ptr @_ZN15expr2polynomialD0Ev, ptr @_ZNK15expr2polynomial6is_intEj, ptr @_ZN15expr2polynomial6mk_varEb] }, align 8

; Function Attrs: mustprogress uwtable
define hidden void @_ZN15expr2polynomialC2ER11ast_managerRN10polynomial7managerEP8expr2varb(ptr noundef nonnull align 8 dereferenceable(16) %this, ptr noundef nonnull align 8 dereferenceable(976) %am, ptr noundef nonnull align 8 dereferenceable(8) %pm, ptr noundef %e2v, i1 noundef zeroext %use_var_idxs) unnamed_addr #4 align 2 {
entry:
  %this.addr = alloca ptr, align 8
  %am.addr = alloca ptr, align 8
  %pm.addr = alloca ptr, align 8
  %e2v.addr = alloca ptr, align 8
  %use_var_idxs.addr = alloca i8, align 1
  store ptr %this, ptr %this.addr, align 8
  store ptr %am, ptr %am.addr, align 8
  store ptr %pm, ptr %pm.addr, align 8
  store ptr %e2v, ptr %e2v.addr, align 8
  %frombool = zext i1 %use_var_idxs to i8
  store i8 %frombool, ptr %use_var_idxs.addr, align 1
  %this1 = load ptr, ptr %this.addr, align 8
  store ptr getelementptr inbounds ({ [6 x ptr] }, ptr @_ZTV15expr2polynomial, i32 0, i32 0, i32 2), ptr %this1, align 8
  %call = call noalias noundef ptr @_ZN6memory8allocateEm(i64 noundef 192)
  %0 = load ptr, ptr %am.addr, align 8
  %1 = load ptr, ptr %pm.addr, align 8
  %2 = load ptr, ptr %e2v.addr, align 8
  %3 = load i8, ptr %use_var_idxs.addr, align 1
  %tobool = trunc i8 %3 to i1
  call void @_ZN15expr2polynomial3impC2ERS_R11ast_managerRN10polynomial7managerEP8expr2varb(ptr noundef nonnull align 8 dereferenceable(186) %call, ptr noundef nonnull align 8 dereferenceable(16) %this1, ptr noundef nonnull align 8 dereferenceable(976) %0, ptr noundef nonnull align 8 dereferenceable(8) %1, ptr noundef %2, i1 noundef zeroext %tobool)
  %m_imp = getelementptr inbounds %class.expr2polynomial, ptr %this1, i32 0, i32 1
  store ptr %call, ptr %m_imp, align 8
  ret void
}