; Function Attrs: mustprogress uwtable
define hidden void @_ZN15expr2polynomialC2ER11ast_managerRN10polynomial7managerEP8expr2varb(ptr noundef nonnull align 8 dereferenceable(16) %this, ptr noundef nonnull align 8 dereferenceable(976) %am, ptr noundef nonnull align 8 dereferenceable(8) %pm, ptr noundef %e2v, i1 noundef zeroext %use_var_idxs) unnamed_addr #3 align 2 {
entry:
  store ptr getelementptr inbounds ({ [6 x ptr] }, ptr @_ZTV15expr2polynomial, i64 0, i32 0, i64 2), ptr %this, align 8
  %call = tail call noalias noundef ptr @_ZN6memory8allocateEm(i64 noundef 192)
  tail call void @_ZN15expr2polynomial3impC2ERS_R11ast_managerRN10polynomial7managerEP8expr2varb(ptr noundef nonnull align 8 dereferenceable(186) %call, ptr noundef nonnull align 8 dereferenceable(16) %this, ptr noundef nonnull align 8 dereferenceable(976) %am, ptr noundef nonnull align 8 dereferenceable(8) %pm, ptr noundef %e2v, i1 noundef zeroext %use_var_idxs)
  %m_imp = getelementptr inbounds i8, ptr %this, i64 8
  store ptr %call, ptr %m_imp, align 8
  ret void
}